; Function Attrs: mustprogress uwtable
define void @_ZN7rocksdb20FaultInjectionTestFS4PollERSt6vectorIPvSaIS2_EEm(ptr noalias sret(%"class.rocksdb::IOStatus") align 8 %agg.result, ptr nocapture noundef nonnull readonly align 8 dereferenceable(371) %this, ptr noundef nonnull align 1 %io_handles, i64 noundef %min_completions) unnamed_addr #2 align 2 {
entry:
  %target_.i = getelementptr inbounds i8, ptr %this, i64 32
  %0 = load ptr, ptr %target_.i, align 8
  %vtable = load ptr, ptr %0, align 8
  %vfn = getelementptr inbounds i8, ptr %vtable, i64 464
  %1 = load ptr, ptr %vfn, align 8
  tail call void %1(ptr sret(%"class.rocksdb::IOStatus") align 8 %agg.result, ptr noundef nonnull align 8 dereferenceable(32) %0, ptr noundef nonnull align 1 %io_handles, i64 noundef %min_completions)
  ret void
}